; Function Attrs: mustprogress uwtable
define internal fastcc void @_ZZN8facebook5velox4bits10forEachBitIZNKS0_9functions12_GLOBAL__N_113SplitFunction12applyDecodedIiEEvRKNS0_17SelectivityVectorERNS0_4exec7EvalCtxEPNS0_13DecodedVectorESE_SE_RNSA_12VectorWriterINS0_5ArrayINS0_7VarcharEEEvEEEUliE_EEvPKmiibT_ENKUlimE_clEim(ptr nocapture noundef nonnull readonly align 8 dereferenceable(56) %this, i32 noundef %idx, i64 noundef %mask) unnamed_addr #0 align 2 {
entry:
  %0 = load i8, ptr %this, align 8
  %1 = and i8 %0, 1
  %2 = getelementptr inbounds i8, ptr %this, i64 8
  %3 = load ptr, ptr %2, align 8
  %idxprom2 = sext i32 %idx to i64
  %arrayidx3 = getelementptr inbounds i64, ptr %3, i64 %idxprom2
  %4 = load i64, ptr %arrayidx3, align 8
  %sext = add nsw i8 %1, -1
  %not = sext i8 %sext to i64
  %cond = xor i64 %4, %not
  %and = and i64 %cond, %mask
  %tobool4.not = icmp eq i64 %and, 0
  br i1 %tobool4.not, label %while.end, label %while.body.preheader

while.body.preheader:                             ; preds = %entry
  %5 = getelementptr inbounds i8, ptr %this, i64 16
  %mul = shl nsw i32 %idx, 6
  %6 = getelementptr inbounds i8, ptr %this, i64 24
  %7 = getelementptr inbounds i8, ptr %this, i64 40
  br label %while.body

while.body:                                       ; preds = %while.body.preheader, %_ZZNK8facebook5velox9functions12_GLOBAL__N_113SplitFunction12applyDecodedIiEEvRKNS0_17SelectivityVectorERNS0_4exec7EvalCtxEPNS0_13DecodedVectorESC_SC_RNS8_12VectorWriterINS0_5ArrayINS0_7VarcharEEEvEEENKUliE_clEi.exit
  %word.0 = phi i64 [ %and6, %_ZZNK8facebook5velox9functions12_GLOBAL__N_113SplitFunction12applyDecodedIiEEvRKNS0_17SelectivityVectorERNS0_4exec7EvalCtxEPNS0_13DecodedVectorESC_SC_RNS8_12VectorWriterINS0_5ArrayINS0_7VarcharEEEvEEENKUliE_clEi.exit ], [ %and, %while.body.preheader ]
  %8 = tail call i64 @llvm.cttz.i64(i64 %word.0, i1 true), !range !32
  %cast = trunc i64 %8 to i32
  %add = or disjoint i32 %mul, %cast
  %9 = load ptr, ptr %5, align 8
  %10 = load ptr, ptr %9, align 8
  %data_.i.i = getelementptr inbounds i8, ptr %10, i64 16
  %11 = load ptr, ptr %data_.i.i, align 8
  %isIdentityMapping_.i.i.i = getelementptr inbounds i8, ptr %10, i64 58
  %12 = load i8, ptr %isIdentityMapping_.i.i.i, align 2
  %13 = and i8 %12, 1
  %tobool.not.i.i.i = icmp eq i8 %13, 0
  br i1 %tobool.not.i.i.i, label %if.end.i.i.i, label %_ZNK8facebook5velox13DecodedVector7valueAtINS0_10StringViewEEET_i.exit.i

if.end.i.i.i:                                     ; preds = %while.body
  %isConstantMapping_.i.i.i = getelementptr inbounds i8, ptr %10, i64 59
  %14 = load i8, ptr %isConstantMapping_.i.i.i, align 1
  %15 = and i8 %14, 1
  %tobool2.not.i.i.i = icmp eq i8 %15, 0
  br i1 %tobool2.not.i.i.i, label %if.end4.i.i.i, label %if.then3.i.i.i

if.then3.i.i.i:                                   ; preds = %if.end.i.i.i
  %constantIndex_.i.i.i = getelementptr inbounds i8, ptr %10, i64 64
  %16 = load i32, ptr %constantIndex_.i.i.i, align 8
  br label %_ZNK8facebook5velox13DecodedVector7valueAtINS0_10StringViewEEET_i.exit.i

if.end4.i.i.i:                                    ; preds = %if.end.i.i.i
  %indices_.i.i.i = getelementptr inbounds i8, ptr %10, i64 8
  %17 = load ptr, ptr %indices_.i.i.i, align 8
  %idxprom.i.i.i = sext i32 %add to i64
  %arrayidx.i.i.i = getelementptr inbounds i32, ptr %17, i64 %idxprom.i.i.i
  %18 = load i32, ptr %arrayidx.i.i.i, align 4
  br label %_ZNK8facebook5velox13DecodedVector7valueAtINS0_10StringViewEEET_i.exit.i

_ZNK8facebook5velox13DecodedVector7valueAtINS0_10StringViewEEET_i.exit.i: ; preds = %if.end4.i.i.i, %if.then3.i.i.i, %while.body
  %retval.0.i.i.i = phi i32 [ %16, %if.then3.i.i.i ], [ %18, %if.end4.i.i.i ], [ %add, %while.body ]
  %idxprom.i.i = sext i32 %retval.0.i.i.i to i64
  %arrayidx.i.i = getelementptr inbounds %"struct.facebook::velox::StringView", ptr %11, i64 %idxprom.i.i
  %retval.sroa.0.0.copyload.i.i = load i64, ptr %arrayidx.i.i, align 8
  %retval.sroa.2.0.arrayidx.sroa_idx.i.i = getelementptr inbounds i8, ptr %arrayidx.i.i, i64 8
  %retval.sroa.2.0.copyload.i.i = load ptr, ptr %retval.sroa.2.0.arrayidx.sroa_idx.i.i, align 8
  %19 = load ptr, ptr %6, align 8
  %20 = load ptr, ptr %19, align 8
  %data_.i3.i = getelementptr inbounds i8, ptr %20, i64 16
  %21 = load ptr, ptr %data_.i3.i, align 8
  %isIdentityMapping_.i.i4.i = getelementptr inbounds i8, ptr %20, i64 58
  %22 = load i8, ptr %isIdentityMapping_.i.i4.i, align 2
  %23 = and i8 %22, 1
  %tobool.not.i.i5.i = icmp eq i8 %23, 0
  br i1 %tobool.not.i.i5.i, label %if.end.i.i14.i, label %_ZZNK8facebook5velox9functions12_GLOBAL__N_113SplitFunction12applyDecodedIiEEvRKNS0_17SelectivityVectorERNS0_4exec7EvalCtxEPNS0_13DecodedVectorESC_SC_RNS8_12VectorWriterINS0_5ArrayINS0_7VarcharEEEvEEENKUliE_clEi.exit

if.end.i.i14.i:                                   ; preds = %_ZNK8facebook5velox13DecodedVector7valueAtINS0_10StringViewEEET_i.exit.i
  %isConstantMapping_.i.i15.i = getelementptr inbounds i8, ptr %20, i64 59
  %24 = load i8, ptr %isConstantMapping_.i.i15.i, align 1
  %25 = and i8 %24, 1
  %tobool2.not.i.i16.i = icmp eq i8 %25, 0
  br i1 %tobool2.not.i.i16.i, label %if.end4.i.i19.i, label %if.then3.i.i17.i

if.then3.i.i17.i:                                 ; preds = %if.end.i.i14.i
  %constantIndex_.i.i18.i = getelementptr inbounds i8, ptr %20, i64 64
  %26 = load i32, ptr %constantIndex_.i.i18.i, align 8
  br label %_ZZNK8facebook5velox9functions12_GLOBAL__N_113SplitFunction12applyDecodedIiEEvRKNS0_17SelectivityVectorERNS0_4exec7EvalCtxEPNS0_13DecodedVectorESC_SC_RNS8_12VectorWriterINS0_5ArrayINS0_7VarcharEEEvEEENKUliE_clEi.exit

if.end4.i.i19.i:                                  ; preds = %if.end.i.i14.i
  %indices_.i.i20.i = getelementptr inbounds i8, ptr %20, i64 8
  %27 = load ptr, ptr %indices_.i.i20.i, align 8
  %idxprom.i.i21.i = sext i32 %add to i64
  %arrayidx.i.i22.i = getelementptr inbounds i32, ptr %27, i64 %idxprom.i.i21.i
  %28 = load i32, ptr %arrayidx.i.i22.i, align 4
  br label %_ZZNK8facebook5velox9functions12_GLOBAL__N_113SplitFunction12applyDecodedIiEEvRKNS0_17SelectivityVectorERNS0_4exec7EvalCtxEPNS0_13DecodedVectorESC_SC_RNS8_12VectorWriterINS0_5ArrayINS0_7VarcharEEEvEEENKUliE_clEi.exit

_ZZNK8facebook5velox9functions12_GLOBAL__N_113SplitFunction12applyDecodedIiEEvRKNS0_17SelectivityVectorERNS0_4exec7EvalCtxEPNS0_13DecodedVectorESC_SC_RNS8_12VectorWriterINS0_5ArrayINS0_7VarcharEEEvEEENKUliE_clEi.exit: ; preds = %_ZNK8facebook5velox13DecodedVector7valueAtINS0_10StringViewEEET_i.exit.i, %if.then3.i.i17.i, %if.end4.i.i19.i
  %retval.0.i.i6.i = phi i32 [ %26, %if.then3.i.i17.i ], [ %28, %if.end4.i.i19.i ], [ %add, %_ZNK8facebook5velox13DecodedVector7valueAtINS0_10StringViewEEET_i.exit.i ]
  %idxprom.i7.i = sext i32 %retval.0.i.i6.i to i64
  %arrayidx.i8.i = getelementptr inbounds %"struct.facebook::velox::StringView", ptr %21, i64 %idxprom.i7.i
  %retval.sroa.0.0.copyload.i9.i = load i64, ptr %arrayidx.i8.i, align 8
  %retval.sroa.2.0.arrayidx.sroa_idx.i10.i = getelementptr inbounds i8, ptr %arrayidx.i8.i, i64 8
  %retval.sroa.2.0.copyload.i11.i = load ptr, ptr %retval.sroa.2.0.arrayidx.sroa_idx.i10.i, align 8
  %29 = load ptr, ptr %7, align 8
  tail call fastcc void @_ZNK8facebook5velox9functions12_GLOBAL__N_113SplitFunction10applyInnerILb0EiEEvNS0_10StringViewES5_T0_iRNS0_4exec12VectorWriterINS0_5ArrayINS0_7VarcharEEEvEE(i64 %retval.sroa.0.0.copyload.i.i, ptr %retval.sroa.2.0.copyload.i.i, i64 %retval.sroa.0.0.copyload.i9.i, ptr %retval.sroa.2.0.copyload.i11.i, i32 noundef %add, ptr noundef nonnull align 8 dereferenceable(192) %29)
  %sub = add i64 %word.0, -1
  %and6 = and i64 %sub, %word.0
  %tobool5.old.not = icmp eq i64 %and6, 0
  br i1 %tobool5.old.not, label %while.end, label %while.body

while.end:                                        ; preds = %_ZZNK8facebook5velox9functions12_GLOBAL__N_113SplitFunction12applyDecodedIiEEvRKNS0_17SelectivityVectorERNS0_4exec7EvalCtxEPNS0_13DecodedVectorESC_SC_RNS8_12VectorWriterINS0_5ArrayINS0_7VarcharEEEvEEENKUliE_clEi.exit, %entry
  ret void
}